; Function Attrs: mustprogress uwtable
define noundef nonnull align 8 dereferenceable(64) ptr @_ZN6icu_7713ICUServiceKey11parseSuffixERNS_13UnicodeStringE(ptr noundef nonnull returned align 8 dereferenceable(64) %0) local_unnamed_addr #0 align 2 {
  %2 = getelementptr inbounds nuw i8, ptr %0, i64 8
  %3 = load i16, ptr %2, align 8, !tbaa !6
  %4 = icmp slt i16 %3, 0
  %5 = ashr i16 %3, 5
  %6 = sext i16 %5 to i32
  %7 = getelementptr inbounds nuw i8, ptr %0, i64 12
  %8 = load i32, ptr %7, align 4
  %9 = select i1 %4, i32 %8, i32 %6
  %10 = tail call noundef i32 @_ZNK6icu_7713UnicodeString9doIndexOfEDsii(ptr noundef nonnull align 8 dereferenceable(64) %0, i16 noundef zeroext 47, i32 noundef 0, i32 noundef %9)
  %11 = icmp sgt i32 %10, -1
  br i1 %11, label %12, label %_ZN6icu_7713UnicodeString6removeEii.exit

12:                                               ; preds = %1
  %13 = add nuw nsw i32 %10, 1
  %14 = icmp eq i32 %13, 2147483647
  br i1 %14, label %15, label %19

15:                                               ; preds = %12
  %16 = load i16, ptr %2, align 8, !tbaa !6
  %17 = and i16 %16, 1
  %.not.i.i = icmp eq i16 %17, 0
  %18 = and i16 %16, 30
  %storemerge.i.i = select i1 %.not.i.i, i16 %18, i16 2
  store i16 %storemerge.i.i, ptr %2, align 8, !tbaa !6
  br label %_ZN6icu_7713UnicodeString6removeEii.exit

19:                                               ; preds = %12
  %20 = tail call noundef nonnull align 8 dereferenceable(64) ptr @_ZN6icu_7713UnicodeString9doReplaceEiiPKDsii(ptr noundef nonnull align 8 dereferenceable(64) %0, i32 noundef 0, i32 noundef %13, ptr noundef null, i32 noundef 0, i32 noundef 0)
  br label %_ZN6icu_7713UnicodeString6removeEii.exit

_ZN6icu_7713UnicodeString6removeEii.exit:         ; preds = %19, %15, %1
  ret ptr %0
}